target datalayout = "e-m:e-p270:32:32-p271:32:32-p272:64:64-i64:64-i128:128-f80:128-n8:16:32:64-S128"
target triple = "x86_64-pc-linux-gnu"

%struct.asn1_string_st = type { i32, i32, ptr, i64 }

@.str = private unnamed_addr constant [30 x i8] c"../openssl/crypto/ct/ct_oct.c\00", align 1

; Function Attrs: nounwind uwtable
define i32 @i2d_SCT_LIST(ptr noundef %0, ptr noundef %1) #0 {
  %3 = alloca i32, align 4
  %4 = alloca ptr, align 8
  %5 = alloca ptr, align 8
  %6 = alloca %struct.asn1_string_st, align 8
  %7 = alloca i32, align 4
  %8 = alloca i32, align 4
  store ptr %0, ptr %4, align 8, !tbaa !34
  store ptr %1, ptr %5, align 8, !tbaa !8
  call void @llvm.lifetime.start.p0(i64 24, ptr %6) #5
  call void @llvm.lifetime.start.p0(i64 4, ptr %7) #5
  %9 = getelementptr inbounds nuw %struct.asn1_string_st, ptr %6, i32 0, i32 2
  store ptr null, ptr %9, align 8, !tbaa !42
  %10 = load ptr, ptr %4, align 8, !tbaa !34
  %11 = getelementptr inbounds nuw %struct.asn1_string_st, ptr %6, i32 0, i32 2
  %12 = call i32 @i2o_SCT_LIST(ptr noundef %10, ptr noundef %11)
  %13 = getelementptr inbounds nuw %struct.asn1_string_st, ptr %6, i32 0, i32 0
  store i32 %12, ptr %13, align 8, !tbaa !44
  %14 = icmp eq i32 %12, -1
  br i1 %14, label %15, label %16

15:                                               ; preds = %2
  store i32 -1, ptr %3, align 4
  store i32 1, ptr %8, align 4
  br label %22

16:                                               ; preds = %2
  %17 = load ptr, ptr %5, align 8, !tbaa !8
  %18 = call i32 @i2d_ASN1_OCTET_STRING(ptr noundef %6, ptr noundef %17)
  store i32 %18, ptr %7, align 4, !tbaa !27
  %19 = getelementptr inbounds nuw %struct.asn1_string_st, ptr %6, i32 0, i32 2
  %20 = load ptr, ptr %19, align 8, !tbaa !42
  call void @CRYPTO_free(ptr noundef %20, ptr noundef @.str, i32 noundef 399)
  %21 = load i32, ptr %7, align 4, !tbaa !27
  store i32 %21, ptr %3, align 4
  store i32 1, ptr %8, align 4
  br label %22

22:                                               ; preds = %16, %15
  call void @llvm.lifetime.end.p0(i64 4, ptr %7) #5
  call void @llvm.lifetime.end.p0(i64 24, ptr %6) #5
  %23 = load i32, ptr %3, align 4
  ret i32 %23
}