; Function Attrs: nounwind uwtable
define i32 @i2d_SCT_LIST(ptr noundef %0, ptr noundef %1) local_unnamed_addr #0 {
  %3 = alloca %struct.asn1_string_st, align 8
  call void @llvm.lifetime.start.p0(i64 24, ptr nonnull %3) #4
  %4 = getelementptr inbounds nuw i8, ptr %3, i64 8
  store ptr null, ptr %4, align 8, !tbaa !33
  %5 = call i32 @i2o_SCT_LIST(ptr noundef %0, ptr noundef nonnull %4)
  store i32 %5, ptr %3, align 8, !tbaa !35
  %6 = icmp eq i32 %5, -1
  br i1 %6, label %10, label %7

7:                                                ; preds = %2
  %8 = call i32 @i2d_ASN1_OCTET_STRING(ptr noundef nonnull %3, ptr noundef %1) #4
  %9 = load ptr, ptr %4, align 8, !tbaa !33
  call void @CRYPTO_free(ptr noundef %9, ptr noundef nonnull @.str, i32 noundef 399) #4
  br label %10

10:                                               ; preds = %2, %7
  %.0 = phi i32 [ %8, %7 ], [ -1, %2 ]
  call void @llvm.lifetime.end.p0(i64 24, ptr nonnull %3) #4
  ret i32 %.0
}